; Function Attrs: mustprogress uwtable
define internal void @_ZN12_GLOBAL__N_17mat2matERKN2cv11_InputArrayERKNS0_12_OutputArrayE(ptr noundef nonnull align 8 dereferenceable(24) %0, ptr noundef nonnull align 8 dereferenceable(24) %1) #0 personality ptr @__gxx_personality_v0 {
  %3 = alloca %"class.cv::Mat", align 8
  call void @llvm.lifetime.start.p0(i64 96, ptr nonnull %3) #11
  %4 = tail call noundef i32 @_ZNK2cv11_InputArray4kindEv(ptr noundef nonnull align 8 dereferenceable(24) %0), !noalias !49
  %5 = icmp eq i32 %4, 65536
  br i1 %5, label %6, label %9

6:                                                ; preds = %2
  %7 = getelementptr inbounds nuw i8, ptr %0, i64 8
  %8 = load ptr, ptr %7, align 8, !tbaa !10, !noalias !49
  call void @_ZN2cv3MatC1ERKS0_(ptr noundef nonnull align 8 dereferenceable(96) %3, ptr noundef nonnull align 8 dereferenceable(96) %8)
  br label %_ZNK2cv11_InputArray6getMatEi.exit

9:                                                ; preds = %2
  call void @_ZNK2cv11_InputArray7getMat_Ei(ptr dead_on_unwind nonnull writable sret(%"class.cv::Mat") align 8 %3, ptr noundef nonnull align 8 dereferenceable(24) %0, i32 noundef -1)
  br label %_ZNK2cv11_InputArray6getMatEi.exit

_ZNK2cv11_InputArray6getMatEi.exit:               ; preds = %6, %9
  invoke void @_ZNK2cv3Mat6copyToERKNS_12_OutputArrayE(ptr noundef nonnull align 8 dereferenceable(96) %3, ptr noundef nonnull align 8 dereferenceable(24) %1)
          to label %10 unwind label %11

10:                                               ; preds = %_ZNK2cv11_InputArray6getMatEi.exit
  call void @_ZN2cv3MatD1Ev(ptr noundef nonnull align 8 dereferenceable(96) %3) #11
  call void @llvm.lifetime.end.p0(i64 96, ptr nonnull %3) #11
  ret void

11:                                               ; preds = %_ZNK2cv11_InputArray6getMatEi.exit
  %12 = landingpad { ptr, i32 }
          cleanup
  call void @_ZN2cv3MatD1Ev(ptr noundef nonnull align 8 dereferenceable(96) %3) #11
  call void @llvm.lifetime.end.p0(i64 96, ptr nonnull %3) #11
  resume { ptr, i32 } %12
}